target datalayout = "e-m:e-p270:32:32-p271:32:32-p272:64:64-i64:64-i128:128-f80:128-n8:16:32:64-S128"
target triple = "x86_64-pc-linux-gnu"

%struct.jpeg_common_struct = type { ptr, ptr, ptr, ptr, i32, i32 }
%struct.jpeg_error_mgr = type { ptr, ptr, ptr, ptr, ptr, i32, %union.anon, i32, i64, ptr, i32, ptr, i32, i32 }
%union.anon = type { [8 x i32], [48 x i8] }
%struct.my_memory_mgr = type { %struct.jpeg_memory_mgr, [2 x ptr], [2 x ptr], ptr, ptr, i64, i32 }
%struct.jpeg_memory_mgr = type { ptr, ptr, ptr, ptr, ptr, ptr, ptr, ptr, ptr, ptr, ptr, i64, i64 }

@.str = private unnamed_addr constant [8 x i8] c"JPEGMEM\00", align 1
@.str.1 = private unnamed_addr constant [6 x i8] c"%ld%c\00", align 1

; Function Attrs: alwaysinline nounwind uwtable
define internal i32 @GETENV_S(ptr noundef %0, i64 noundef %1, ptr noundef %2) #4 {
  %4 = alloca i32, align 4
  %5 = alloca ptr, align 8
  %6 = alloca i64, align 8
  %7 = alloca ptr, align 8
  %8 = alloca ptr, align 8
  %9 = alloca i32, align 4
  store ptr %0, ptr %5, align 8, !tbaa !55
  store i64 %1, ptr %6, align 8, !tbaa !14
  store ptr %2, ptr %7, align 8, !tbaa !55
  call void @llvm.lifetime.start.p0(i64 8, ptr %8) #8
  %10 = load ptr, ptr %5, align 8, !tbaa !55
  %11 = icmp ne ptr %10, null
  br i1 %11, label %18, label %12

12:                                               ; preds = %3
  %13 = load i64, ptr %6, align 8, !tbaa !14
  %14 = icmp eq i64 %13, 0
  br i1 %14, label %15, label %16

15:                                               ; preds = %12
  store i32 0, ptr %4, align 4
  store i32 1, ptr %9, align 4
  br label %48

16:                                               ; preds = %12
  %17 = call ptr @__errno_location() #10
  store i32 22, ptr %17, align 4, !tbaa !40
  store i32 22, ptr %4, align 4
  store i32 1, ptr %9, align 4
  br label %48

18:                                               ; preds = %3
  %19 = load i64, ptr %6, align 8, !tbaa !14
  %20 = icmp eq i64 %19, 0
  br i1 %20, label %21, label %23

21:                                               ; preds = %18
  %22 = call ptr @__errno_location() #10
  store i32 22, ptr %22, align 4, !tbaa !40
  store i32 22, ptr %4, align 4
  store i32 1, ptr %9, align 4
  br label %48

23:                                               ; preds = %18
  %24 = load ptr, ptr %7, align 8, !tbaa !55
  %25 = icmp ne ptr %24, null
  br i1 %25, label %28, label %26

26:                                               ; preds = %23
  %27 = load ptr, ptr %5, align 8, !tbaa !55
  store i8 0, ptr %27, align 1, !tbaa !22
  store i32 0, ptr %4, align 4
  store i32 1, ptr %9, align 4
  br label %48

28:                                               ; preds = %23
  %29 = load ptr, ptr %7, align 8, !tbaa !55
  %30 = call ptr @getenv(ptr noundef %29) #8
  store ptr %30, ptr %8, align 8, !tbaa !55
  %31 = load ptr, ptr %8, align 8, !tbaa !55
  %32 = icmp ne ptr %31, null
  br i1 %32, label %35, label %33

33:                                               ; preds = %28
  %34 = load ptr, ptr %5, align 8, !tbaa !55
  store i8 0, ptr %34, align 1, !tbaa !22
  store i32 0, ptr %4, align 4
  store i32 1, ptr %9, align 4
  br label %48

35:                                               ; preds = %28
  %36 = load ptr, ptr %8, align 8, !tbaa !55
  %37 = call i64 @strlen(ptr noundef %36) #9
  %38 = add i64 %37, 1
  %39 = load i64, ptr %6, align 8, !tbaa !14
  %40 = icmp ugt i64 %38, %39
  br i1 %40, label %41, label %43

41:                                               ; preds = %35
  %42 = load ptr, ptr %5, align 8, !tbaa !55
  store i8 0, ptr %42, align 1, !tbaa !22
  store i32 34, ptr %4, align 4
  store i32 1, ptr %9, align 4
  br label %48

43:                                               ; preds = %35
  %44 = load ptr, ptr %5, align 8, !tbaa !55
  %45 = load ptr, ptr %8, align 8, !tbaa !55
  %46 = load i64, ptr %6, align 8, !tbaa !14
  %47 = call ptr @strncpy(ptr noundef %44, ptr noundef %45, i64 noundef %46) #8
  store i32 0, ptr %4, align 4
  store i32 1, ptr %9, align 4
  br label %48

48:                                               ; preds = %43, %41, %33, %26, %21, %16, %15
  call void @llvm.lifetime.end.p0(i64 8, ptr %8) #8
  %49 = load i32, ptr %4, align 4
  ret i32 %49
}

; Function Attrs: nounwind uwtable
define void @jinit_memory_mgr(ptr noundef %0) #0 {
  %2 = alloca ptr, align 8
  %3 = alloca ptr, align 8
  %4 = alloca i64, align 8
  %5 = alloca i32, align 4
  %6 = alloca i64, align 8
  %7 = alloca [30 x i8], align 16
  %8 = alloca i8, align 1
  store ptr %0, ptr %2, align 8, !tbaa !3
  call void @llvm.lifetime.start.p0(i64 8, ptr %3) #8
  call void @llvm.lifetime.start.p0(i64 8, ptr %4) #8
  call void @llvm.lifetime.start.p0(i64 4, ptr %5) #8
  call void @llvm.lifetime.start.p0(i64 8, ptr %6) #8
  %9 = load ptr, ptr %2, align 8, !tbaa !3
  %10 = getelementptr inbounds nuw %struct.jpeg_common_struct, ptr %9, i32 0, i32 1
  store ptr null, ptr %10, align 8, !tbaa !8
  store i64 1000000000, ptr %6, align 8, !tbaa !14
  %11 = load i64, ptr %6, align 8, !tbaa !14
  %12 = icmp ne i64 %11, 1000000000
  br i1 %12, label %13, label %24

13:                                               ; preds = %1
  %14 = load ptr, ptr %2, align 8, !tbaa !3
  %15 = getelementptr inbounds nuw %struct.jpeg_common_struct, ptr %14, i32 0, i32 0
  %16 = load ptr, ptr %15, align 8, !tbaa !16
  %17 = getelementptr inbounds nuw %struct.jpeg_error_mgr, ptr %16, i32 0, i32 5
  store i32 3, ptr %17, align 8, !tbaa !17
  %18 = load ptr, ptr %2, align 8, !tbaa !3
  %19 = getelementptr inbounds nuw %struct.jpeg_common_struct, ptr %18, i32 0, i32 0
  %20 = load ptr, ptr %19, align 8, !tbaa !16
  %21 = getelementptr inbounds nuw %struct.jpeg_error_mgr, ptr %20, i32 0, i32 0
  %22 = load ptr, ptr %21, align 8, !tbaa !20
  %23 = load ptr, ptr %2, align 8, !tbaa !3
  call void %22(ptr noundef %23)
  br label %24

24:                                               ; preds = %13, %1
  %25 = load ptr, ptr %2, align 8, !tbaa !3
  %26 = call i64 @jpeg_mem_init(ptr noundef %25)
  store i64 %26, ptr %4, align 8, !tbaa !14
  %27 = load ptr, ptr %2, align 8, !tbaa !3
  %28 = call ptr @jpeg_get_small(ptr noundef %27, i64 noundef 168)
  store ptr %28, ptr %3, align 8, !tbaa !21
  %29 = load ptr, ptr %3, align 8, !tbaa !21
  %30 = icmp eq ptr %29, null
  br i1 %30, label %31, label %48

31:                                               ; preds = %24
  %32 = load ptr, ptr %2, align 8, !tbaa !3
  call void @jpeg_mem_term(ptr noundef %32)
  %33 = load ptr, ptr %2, align 8, !tbaa !3
  %34 = getelementptr inbounds nuw %struct.jpeg_common_struct, ptr %33, i32 0, i32 0
  %35 = load ptr, ptr %34, align 8, !tbaa !16
  %36 = getelementptr inbounds nuw %struct.jpeg_error_mgr, ptr %35, i32 0, i32 5
  store i32 54, ptr %36, align 8, !tbaa !17
  %37 = load ptr, ptr %2, align 8, !tbaa !3
  %38 = getelementptr inbounds nuw %struct.jpeg_common_struct, ptr %37, i32 0, i32 0
  %39 = load ptr, ptr %38, align 8, !tbaa !16
  %40 = getelementptr inbounds nuw %struct.jpeg_error_mgr, ptr %39, i32 0, i32 6
  %41 = getelementptr inbounds [8 x i32], ptr %40, i64 0, i64 0
  store i32 0, ptr %41, align 4, !tbaa !22
  %42 = load ptr, ptr %2, align 8, !tbaa !3
  %43 = getelementptr inbounds nuw %struct.jpeg_common_struct, ptr %42, i32 0, i32 0
  %44 = load ptr, ptr %43, align 8, !tbaa !16
  %45 = getelementptr inbounds nuw %struct.jpeg_error_mgr, ptr %44, i32 0, i32 0
  %46 = load ptr, ptr %45, align 8, !tbaa !20
  %47 = load ptr, ptr %2, align 8, !tbaa !3
  call void %46(ptr noundef %47)
  br label %48

48:                                               ; preds = %31, %24
  %49 = load ptr, ptr %3, align 8, !tbaa !21
  %50 = getelementptr inbounds nuw %struct.my_memory_mgr, ptr %49, i32 0, i32 0
  %51 = getelementptr inbounds nuw %struct.jpeg_memory_mgr, ptr %50, i32 0, i32 0
  store ptr @alloc_small, ptr %51, align 8, !tbaa !23
  %52 = load ptr, ptr %3, align 8, !tbaa !21
  %53 = getelementptr inbounds nuw %struct.my_memory_mgr, ptr %52, i32 0, i32 0
  %54 = getelementptr inbounds nuw %struct.jpeg_memory_mgr, ptr %53, i32 0, i32 1
  store ptr @alloc_large, ptr %54, align 8, !tbaa !28
  %55 = load ptr, ptr %3, align 8, !tbaa !21
  %56 = getelementptr inbounds nuw %struct.my_memory_mgr, ptr %55, i32 0, i32 0
  %57 = getelementptr inbounds nuw %struct.jpeg_memory_mgr, ptr %56, i32 0, i32 2
  store ptr @alloc_sarray, ptr %57, align 8, !tbaa !29
  %58 = load ptr, ptr %3, align 8, !tbaa !21
  %59 = getelementptr inbounds nuw %struct.my_memory_mgr, ptr %58, i32 0, i32 0
  %60 = getelementptr inbounds nuw %struct.jpeg_memory_mgr, ptr %59, i32 0, i32 3
  store ptr @alloc_barray, ptr %60, align 8, !tbaa !30
  %61 = load ptr, ptr %3, align 8, !tbaa !21
  %62 = getelementptr inbounds nuw %struct.my_memory_mgr, ptr %61, i32 0, i32 0
  %63 = getelementptr inbounds nuw %struct.jpeg_memory_mgr, ptr %62, i32 0, i32 4
  store ptr @request_virt_sarray, ptr %63, align 8, !tbaa !31
  %64 = load ptr, ptr %3, align 8, !tbaa !21
  %65 = getelementptr inbounds nuw %struct.my_memory_mgr, ptr %64, i32 0, i32 0
  %66 = getelementptr inbounds nuw %struct.jpeg_memory_mgr, ptr %65, i32 0, i32 5
  store ptr @request_virt_barray, ptr %66, align 8, !tbaa !32
  %67 = load ptr, ptr %3, align 8, !tbaa !21
  %68 = getelementptr inbounds nuw %struct.my_memory_mgr, ptr %67, i32 0, i32 0
  %69 = getelementptr inbounds nuw %struct.jpeg_memory_mgr, ptr %68, i32 0, i32 6
  store ptr @realize_virt_arrays, ptr %69, align 8, !tbaa !33
  %70 = load ptr, ptr %3, align 8, !tbaa !21
  %71 = getelementptr inbounds nuw %struct.my_memory_mgr, ptr %70, i32 0, i32 0
  %72 = getelementptr inbounds nuw %struct.jpeg_memory_mgr, ptr %71, i32 0, i32 7
  store ptr @access_virt_sarray, ptr %72, align 8, !tbaa !34
  %73 = load ptr, ptr %3, align 8, !tbaa !21
  %74 = getelementptr inbounds nuw %struct.my_memory_mgr, ptr %73, i32 0, i32 0
  %75 = getelementptr inbounds nuw %struct.jpeg_memory_mgr, ptr %74, i32 0, i32 8
  store ptr @access_virt_barray, ptr %75, align 8, !tbaa !35
  %76 = load ptr, ptr %3, align 8, !tbaa !21
  %77 = getelementptr inbounds nuw %struct.my_memory_mgr, ptr %76, i32 0, i32 0
  %78 = getelementptr inbounds nuw %struct.jpeg_memory_mgr, ptr %77, i32 0, i32 9
  store ptr @free_pool, ptr %78, align 8, !tbaa !36
  %79 = load ptr, ptr %3, align 8, !tbaa !21
  %80 = getelementptr inbounds nuw %struct.my_memory_mgr, ptr %79, i32 0, i32 0
  %81 = getelementptr inbounds nuw %struct.jpeg_memory_mgr, ptr %80, i32 0, i32 10
  store ptr @self_destruct, ptr %81, align 8, !tbaa !37
  %82 = load ptr, ptr %3, align 8, !tbaa !21
  %83 = getelementptr inbounds nuw %struct.my_memory_mgr, ptr %82, i32 0, i32 0
  %84 = getelementptr inbounds nuw %struct.jpeg_memory_mgr, ptr %83, i32 0, i32 12
  store i64 1000000000, ptr %84, align 8, !tbaa !38
  %85 = load i64, ptr %4, align 8, !tbaa !14
  %86 = load ptr, ptr %3, align 8, !tbaa !21
  %87 = getelementptr inbounds nuw %struct.my_memory_mgr, ptr %86, i32 0, i32 0
  %88 = getelementptr inbounds nuw %struct.jpeg_memory_mgr, ptr %87, i32 0, i32 11
  store i64 %85, ptr %88, align 8, !tbaa !39
  store i32 1, ptr %5, align 4, !tbaa !40
  br label %89

89:                                               ; preds = %103, %48
  %90 = load i32, ptr %5, align 4, !tbaa !40
  %91 = icmp sge i32 %90, 0
  br i1 %91, label %92, label %106

92:                                               ; preds = %89
  %93 = load ptr, ptr %3, align 8, !tbaa !21
  %94 = getelementptr inbounds nuw %struct.my_memory_mgr, ptr %93, i32 0, i32 1
  %95 = load i32, ptr %5, align 4, !tbaa !40
  %96 = sext i32 %95 to i64
  %97 = getelementptr inbounds [2 x ptr], ptr %94, i64 0, i64 %96
  store ptr null, ptr %97, align 8, !tbaa !41
  %98 = load ptr, ptr %3, align 8, !tbaa !21
  %99 = getelementptr inbounds nuw %struct.my_memory_mgr, ptr %98, i32 0, i32 2
  %100 = load i32, ptr %5, align 4, !tbaa !40
  %101 = sext i32 %100 to i64
  %102 = getelementptr inbounds [2 x ptr], ptr %99, i64 0, i64 %101
  store ptr null, ptr %102, align 8, !tbaa !43
  br label %103

103:                                              ; preds = %92
  %104 = load i32, ptr %5, align 4, !tbaa !40
  %105 = add nsw i32 %104, -1
  store i32 %105, ptr %5, align 4, !tbaa !40
  br label %89, !llvm.loop !45

106:                                              ; preds = %89
  %107 = load ptr, ptr %3, align 8, !tbaa !21
  %108 = getelementptr inbounds nuw %struct.my_memory_mgr, ptr %107, i32 0, i32 3
  store ptr null, ptr %108, align 8, !tbaa !47
  %109 = load ptr, ptr %3, align 8, !tbaa !21
  %110 = getelementptr inbounds nuw %struct.my_memory_mgr, ptr %109, i32 0, i32 4
  store ptr null, ptr %110, align 8, !tbaa !48
  %111 = load ptr, ptr %3, align 8, !tbaa !21
  %112 = getelementptr inbounds nuw %struct.my_memory_mgr, ptr %111, i32 0, i32 5
  store i64 168, ptr %112, align 8, !tbaa !49
  %113 = load ptr, ptr %3, align 8, !tbaa !21
  %114 = getelementptr inbounds nuw %struct.my_memory_mgr, ptr %113, i32 0, i32 0
  %115 = load ptr, ptr %2, align 8, !tbaa !3
  %116 = getelementptr inbounds nuw %struct.jpeg_common_struct, ptr %115, i32 0, i32 1
  store ptr %114, ptr %116, align 8, !tbaa !8
  call void @llvm.lifetime.start.p0(i64 30, ptr %7) #8
  call void @llvm.memset.p0.i64(ptr align 16 %7, i8 0, i64 30, i1 false)
  %117 = getelementptr inbounds [30 x i8], ptr %7, i64 0, i64 0
  %118 = call i32 @GETENV_S(ptr noundef %117, i64 noundef 30, ptr noundef @.str)
  %119 = icmp ne i32 %118, 0
  br i1 %119, label %146, label %120

120:                                              ; preds = %106
  %121 = getelementptr inbounds [30 x i8], ptr %7, i64 0, i64 0
  %122 = call i64 @strlen(ptr noundef %121) #9
  %123 = icmp ugt i64 %122, 0
  br i1 %123, label %124, label %146

124:                                              ; preds = %120
  call void @llvm.lifetime.start.p0(i64 1, ptr %8) #8
  store i8 120, ptr %8, align 1, !tbaa !22
  %125 = getelementptr inbounds [30 x i8], ptr %7, i64 0, i64 0
  %126 = call i32 (ptr, ptr, ...) @__isoc99_sscanf(ptr noundef %125, ptr noundef @.str.1, ptr noundef %4, ptr noundef %8) #8
  %127 = icmp sgt i32 %126, 0
  br i1 %127, label %128, label %145

128:                                              ; preds = %124
  %129 = load i8, ptr %8, align 1, !tbaa !22
  %130 = sext i8 %129 to i32
  %131 = icmp eq i32 %130, 109
  br i1 %131, label %136, label %132

132:                                              ; preds = %128
  %133 = load i8, ptr %8, align 1, !tbaa !22
  %134 = sext i8 %133 to i32
  %135 = icmp eq i32 %134, 77
  br i1 %135, label %136, label %139

136:                                              ; preds = %132, %128
  %137 = load i64, ptr %4, align 8, !tbaa !14
  %138 = mul nsw i64 %137, 1000
  store i64 %138, ptr %4, align 8, !tbaa !14
  br label %139

139:                                              ; preds = %136, %132
  %140 = load i64, ptr %4, align 8, !tbaa !14
  %141 = mul nsw i64 %140, 1000
  %142 = load ptr, ptr %3, align 8, !tbaa !21
  %143 = getelementptr inbounds nuw %struct.my_memory_mgr, ptr %142, i32 0, i32 0
  %144 = getelementptr inbounds nuw %struct.jpeg_memory_mgr, ptr %143, i32 0, i32 11
  store i64 %141, ptr %144, align 8, !tbaa !39
  br label %145

145:                                              ; preds = %139, %124
  call void @llvm.lifetime.end.p0(i64 1, ptr %8) #8
  br label %146

146:                                              ; preds = %145, %120, %106
  call void @llvm.lifetime.end.p0(i64 30, ptr %7) #8
  call void @llvm.lifetime.end.p0(i64 8, ptr %6) #8
  call void @llvm.lifetime.end.p0(i64 4, ptr %5) #8
  call void @llvm.lifetime.end.p0(i64 8, ptr %4) #8
  call void @llvm.lifetime.end.p0(i64 8, ptr %3) #8
  ret void
}