; Function Attrs: nounwind uwtable
define void @jinit_memory_mgr(ptr noundef initializes((8, 16)) %0) local_unnamed_addr #0 {
  %2 = alloca i64, align 8
  %3 = alloca [30 x i8], align 16
  %4 = alloca i8, align 1
  call void @llvm.lifetime.start.p0(i64 8, ptr nonnull %2) #9
  %5 = getelementptr inbounds nuw i8, ptr %0, i64 8
  store ptr null, ptr %5, align 8, !tbaa !3
  %6 = tail call i64 @jpeg_mem_init(ptr noundef %0) #9
  store i64 %6, ptr %2, align 8, !tbaa !12
  %7 = tail call ptr @jpeg_get_small(ptr noundef %0, i64 noundef 168) #9
  %8 = icmp eq ptr %7, null
  br i1 %8, label %9, label %15

9:                                                ; preds = %1
  tail call void @jpeg_mem_term(ptr noundef nonnull %0) #9
  %10 = load ptr, ptr %0, align 8, !tbaa !14
  %11 = getelementptr inbounds nuw i8, ptr %10, i64 40
  store i32 54, ptr %11, align 8, !tbaa !15
  %12 = getelementptr inbounds nuw i8, ptr %10, i64 44
  store i32 0, ptr %12, align 4, !tbaa !18
  %13 = load ptr, ptr %0, align 8, !tbaa !14
  %14 = load ptr, ptr %13, align 8, !tbaa !19
  tail call void %14(ptr noundef nonnull %0) #9
  br label %15

15:                                               ; preds = %9, %1
  store ptr @alloc_small, ptr %7, align 8, !tbaa !20
  %16 = getelementptr inbounds nuw i8, ptr %7, i64 8
  store ptr @alloc_large, ptr %16, align 8, !tbaa !25
  %17 = getelementptr inbounds nuw i8, ptr %7, i64 16
  store ptr @alloc_sarray, ptr %17, align 8, !tbaa !26
  %18 = getelementptr inbounds nuw i8, ptr %7, i64 24
  store ptr @alloc_barray, ptr %18, align 8, !tbaa !27
  %19 = getelementptr inbounds nuw i8, ptr %7, i64 32
  store ptr @request_virt_sarray, ptr %19, align 8, !tbaa !28
  %20 = getelementptr inbounds nuw i8, ptr %7, i64 40
  store ptr @request_virt_barray, ptr %20, align 8, !tbaa !29
  %21 = getelementptr inbounds nuw i8, ptr %7, i64 48
  store ptr @realize_virt_arrays, ptr %21, align 8, !tbaa !30
  %22 = getelementptr inbounds nuw i8, ptr %7, i64 56
  store ptr @access_virt_sarray, ptr %22, align 8, !tbaa !31
  %23 = getelementptr inbounds nuw i8, ptr %7, i64 64
  store ptr @access_virt_barray, ptr %23, align 8, !tbaa !32
  %24 = getelementptr inbounds nuw i8, ptr %7, i64 72
  store ptr @free_pool, ptr %24, align 8, !tbaa !33
  %25 = getelementptr inbounds nuw i8, ptr %7, i64 80
  store ptr @self_destruct, ptr %25, align 8, !tbaa !34
  %26 = getelementptr inbounds nuw i8, ptr %7, i64 96
  store i64 1000000000, ptr %26, align 8, !tbaa !35
  %27 = getelementptr inbounds nuw i8, ptr %7, i64 88
  store i64 %6, ptr %27, align 8, !tbaa !36
  %28 = getelementptr inbounds nuw i8, ptr %7, i64 104
  %29 = getelementptr inbounds nuw i8, ptr %7, i64 152
  tail call void @llvm.memset.p0.i64(ptr noundef nonnull align 8 dereferenceable(48) %28, i8 0, i64 48, i1 false)
  store i64 168, ptr %29, align 8, !tbaa !37
  store ptr %7, ptr %5, align 8, !tbaa !3
  call void @llvm.lifetime.start.p0(i64 30, ptr nonnull %3) #9
  %30 = tail call ptr @getenv(ptr noundef nonnull @.str) #9
  %.not.i = icmp eq ptr %30, null
  br i1 %.not.i, label %GETENV_S.exit.thread49, label %31

31:                                               ; preds = %15
  %32 = tail call i64 @strlen(ptr noundef nonnull dereferenceable(1) %30) #10
  %33 = add i64 %32, -30
  %34 = icmp ult i64 %33, -31
  br i1 %34, label %GETENV_S.exit.thread49, label %GETENV_S.exit

GETENV_S.exit:                                    ; preds = %31
  %35 = call ptr @strncpy(ptr noundef nonnull dereferenceable(1) %3, ptr noundef nonnull dereferenceable(1) %30, i64 noundef 30) #9
  %char0.pre = load i8, ptr %3, align 16
  %36 = icmp eq i8 %char0.pre, 0
  br i1 %36, label %GETENV_S.exit.thread49, label %37

37:                                               ; preds = %GETENV_S.exit
  call void @llvm.lifetime.start.p0(i64 1, ptr nonnull %4) #9
  store i8 120, ptr %4, align 1, !tbaa !18
  %38 = call i32 (ptr, ptr, ...) @__isoc99_sscanf(ptr noundef nonnull %3, ptr noundef nonnull @.str.1, ptr noundef nonnull %2, ptr noundef nonnull %4) #9
  %39 = icmp sgt i32 %38, 0
  br i1 %39, label %40, label %45

40:                                               ; preds = %37
  %41 = load i8, ptr %4, align 1, !tbaa !18
  %42 = and i8 %41, -33
  %or.cond = icmp eq i8 %42, 77
  %.pre = load i64, ptr %2, align 8, !tbaa !12
  %43 = mul nsw i64 %.pre, 1000
  %spec.select = select i1 %or.cond, i64 %43, i64 %.pre
  %44 = mul nsw i64 %spec.select, 1000
  store i64 %44, ptr %27, align 8, !tbaa !36
  br label %45

45:                                               ; preds = %40, %37
  call void @llvm.lifetime.end.p0(i64 1, ptr nonnull %4) #9
  br label %GETENV_S.exit.thread49

GETENV_S.exit.thread49:                           ; preds = %31, %15, %45, %GETENV_S.exit
  call void @llvm.lifetime.end.p0(i64 30, ptr nonnull %3) #9
  call void @llvm.lifetime.end.p0(i64 8, ptr nonnull %2) #9
  ret void
}